target datalayout = "e-m:e-p270:32:32-p271:32:32-p272:64:64-i64:64-i128:128-f80:128-n8:16:32:64-S128"
target triple = "x86_64-pc-linux-gnu"

%"class.cxx20::expected.303" = type { %"struct.cxx20::detail::expected_move_assign_base.304" }
%"struct.cxx20::detail::expected_move_assign_base.304" = type { %"struct.cxx20::detail::expected_copy_assign_base.305" }
%"struct.cxx20::detail::expected_copy_assign_base.305" = type { %"struct.cxx20::detail::expected_move_base.306" }
%"struct.cxx20::detail::expected_move_base.306" = type { %"struct.cxx20::detail::expected_copy_base.307" }
%"struct.cxx20::detail::expected_copy_base.307" = type { %"struct.cxx20::detail::expected_operations_base.308" }
%"struct.cxx20::detail::expected_operations_base.308" = type { %"struct.cxx20::detail::expected_view_base.309" }
%"struct.cxx20::detail::expected_view_base.309" = type { %"struct.cxx20::detail::expected_storage_base.310" }
%"struct.cxx20::detail::expected_storage_base.310" = type { i8, %union.anon.311 }
%union.anon.311 = type { i32 }
%"struct.WasmEdge::RefVariant" = type { <2 x i64> }
%"class.WasmEdge::Runtime::Instance::TableInstance" = type { %"class.WasmEdge::AST::TableType", %"class.std::vector.97", %"struct.WasmEdge::RefVariant" }
%"class.WasmEdge::AST::TableType" = type { %"class.WasmEdge::ValType", %"class.WasmEdge::AST::Limit" }
%"class.WasmEdge::ValType" = type { %union.anon.96 }
%union.anon.96 = type { %struct.anon }
%struct.anon = type { i8, i8, i8, i8, i32 }
%"class.WasmEdge::AST::Limit" = type { i8, i32, i32 }
%"class.std::vector.97" = type { %"struct.std::_Vector_base.98" }
%"struct.std::_Vector_base.98" = type { %"struct.std::_Vector_base<WasmEdge::RefVariant, std::allocator<WasmEdge::RefVariant>>::_Vector_impl" }
%"struct.std::_Vector_base<WasmEdge::RefVariant, std::allocator<WasmEdge::RefVariant>>::_Vector_impl" = type { %"struct.std::_Vector_base<WasmEdge::RefVariant, std::allocator<WasmEdge::RefVariant>>::_Vector_impl_data" }
%"struct.std::_Vector_base<WasmEdge::RefVariant, std::allocator<WasmEdge::RefVariant>>::_Vector_impl_data" = type { ptr, ptr, ptr }

; Function Attrs: mustprogress nounwind uwtable
define linkonce_odr hidden void @_ZN5cxx206detail21expected_storage_baseIjN8WasmEdge7ErrCodeELb1ELb1EEC2IJjETnPNSt9enable_ifIX18is_constructible_vIjDpT_EEvE4typeELPv0ELb1EEESt10in_place_tDpOS7_(ptr noundef nonnull align 4 dereferenceable(8) %0, ptr noundef nonnull align 4 dereferenceable(4) %1) unnamed_addr #2 comdat align 2 {
  %3 = alloca ptr, align 8
  %4 = alloca ptr, align 8
  store ptr %0, ptr %3, align 8
  store ptr %1, ptr %4, align 8
  %5 = load ptr, ptr %3, align 8
  %6 = getelementptr inbounds %"struct.cxx20::detail::expected_storage_base.310", ptr %5, i32 0, i32 0
  store i8 1, ptr %6, align 4
  %7 = getelementptr inbounds %"struct.cxx20::detail::expected_storage_base.310", ptr %5, i32 0, i32 1
  %8 = load ptr, ptr %4, align 8
  %9 = load i32, ptr %8, align 4
  store i32 %9, ptr %7, align 4
  ret void
}

; Function Attrs: mustprogress nounwind uwtable
define linkonce_odr hidden void @_ZN5cxx206detail18expected_view_baseIjN8WasmEdge7ErrCodeEECI2NS0_21expected_storage_baseIjS3_Lb1ELb1EEEIJjETnPNSt9enable_ifIX18is_constructible_vIjDpT_EEvE4typeELPv0ELb1EEESt10in_place_tDpOS7_(ptr noundef nonnull align 4 dereferenceable(8) %0, ptr noundef nonnull align 4 dereferenceable(4) %1) unnamed_addr #2 comdat align 2 {
  %3 = alloca ptr, align 8
  %4 = alloca ptr, align 8
  store ptr %0, ptr %3, align 8
  store ptr %1, ptr %4, align 8
  %5 = load ptr, ptr %3, align 8
  %6 = load ptr, ptr %4, align 8
  call void @_ZN5cxx206detail21expected_storage_baseIjN8WasmEdge7ErrCodeELb1ELb1EEC2IJjETnPNSt9enable_ifIX18is_constructible_vIjDpT_EEvE4typeELPv0ELb1EEESt10in_place_tDpOS7_(ptr noundef nonnull align 4 dereferenceable(8) %5, ptr noundef nonnull align 4 dereferenceable(4) %6) #18
  ret void
}

; Function Attrs: mustprogress nounwind uwtable
define linkonce_odr hidden void @_ZN5cxx206detail24expected_operations_baseIjN8WasmEdge7ErrCodeEECI2NS0_21expected_storage_baseIjS3_Lb1ELb1EEEIJjETnPNSt9enable_ifIX18is_constructible_vIjDpT_EEvE4typeELPv0ELb1EEESt10in_place_tDpOS7_(ptr noundef nonnull align 4 dereferenceable(8) %0, ptr noundef nonnull align 4 dereferenceable(4) %1) unnamed_addr #2 comdat align 2 {
  %3 = alloca ptr, align 8
  %4 = alloca ptr, align 8
  store ptr %0, ptr %3, align 8
  store ptr %1, ptr %4, align 8
  %5 = load ptr, ptr %3, align 8
  %6 = load ptr, ptr %4, align 8
  call void @_ZN5cxx206detail18expected_view_baseIjN8WasmEdge7ErrCodeEECI2NS0_21expected_storage_baseIjS3_Lb1ELb1EEEIJjETnPNSt9enable_ifIX18is_constructible_vIjDpT_EEvE4typeELPv0ELb1EEESt10in_place_tDpOS7_(ptr noundef nonnull align 4 dereferenceable(8) %5, ptr noundef nonnull align 4 dereferenceable(4) %6) #18
  ret void
}

; Function Attrs: mustprogress nounwind uwtable
define linkonce_odr hidden void @_ZN5cxx206detail18expected_copy_baseIjN8WasmEdge7ErrCodeELb0EECI2NS0_21expected_storage_baseIjS3_Lb1ELb1EEEIJjETnPNSt9enable_ifIX18is_constructible_vIjDpT_EEvE4typeELPv0ELb1EEESt10in_place_tDpOS7_(ptr noundef nonnull align 4 dereferenceable(8) %0, ptr noundef nonnull align 4 dereferenceable(4) %1) unnamed_addr #2 comdat align 2 {
  %3 = alloca ptr, align 8
  %4 = alloca ptr, align 8
  store ptr %0, ptr %3, align 8
  store ptr %1, ptr %4, align 8
  %5 = load ptr, ptr %3, align 8
  %6 = load ptr, ptr %4, align 8
  call void @_ZN5cxx206detail24expected_operations_baseIjN8WasmEdge7ErrCodeEECI2NS0_21expected_storage_baseIjS3_Lb1ELb1EEEIJjETnPNSt9enable_ifIX18is_constructible_vIjDpT_EEvE4typeELPv0ELb1EEESt10in_place_tDpOS7_(ptr noundef nonnull align 4 dereferenceable(8) %5, ptr noundef nonnull align 4 dereferenceable(4) %6) #18
  ret void
}

; Function Attrs: mustprogress nounwind uwtable
define linkonce_odr hidden void @_ZN5cxx206detail18expected_move_baseIjN8WasmEdge7ErrCodeELb0EECI2NS0_21expected_storage_baseIjS3_Lb1ELb1EEEIJjETnPNSt9enable_ifIX18is_constructible_vIjDpT_EEvE4typeELPv0ELb1EEESt10in_place_tDpOS7_(ptr noundef nonnull align 4 dereferenceable(8) %0, ptr noundef nonnull align 4 dereferenceable(4) %1) unnamed_addr #2 comdat align 2 {
  %3 = alloca ptr, align 8
  %4 = alloca ptr, align 8
  store ptr %0, ptr %3, align 8
  store ptr %1, ptr %4, align 8
  %5 = load ptr, ptr %3, align 8
  %6 = load ptr, ptr %4, align 8
  call void @_ZN5cxx206detail18expected_copy_baseIjN8WasmEdge7ErrCodeELb0EECI2NS0_21expected_storage_baseIjS3_Lb1ELb1EEEIJjETnPNSt9enable_ifIX18is_constructible_vIjDpT_EEvE4typeELPv0ELb1EEESt10in_place_tDpOS7_(ptr noundef nonnull align 4 dereferenceable(8) %5, ptr noundef nonnull align 4 dereferenceable(4) %6) #18
  ret void
}

; Function Attrs: mustprogress nounwind uwtable
define linkonce_odr hidden void @_ZN5cxx206detail25expected_copy_assign_baseIjN8WasmEdge7ErrCodeELb0EECI2NS0_21expected_storage_baseIjS3_Lb1ELb1EEEIJjETnPNSt9enable_ifIX18is_constructible_vIjDpT_EEvE4typeELPv0ELb1EEESt10in_place_tDpOS7_(ptr noundef nonnull align 4 dereferenceable(8) %0, ptr noundef nonnull align 4 dereferenceable(4) %1) unnamed_addr #2 comdat align 2 {
  %3 = alloca ptr, align 8
  %4 = alloca ptr, align 8
  store ptr %0, ptr %3, align 8
  store ptr %1, ptr %4, align 8
  %5 = load ptr, ptr %3, align 8
  %6 = load ptr, ptr %4, align 8
  call void @_ZN5cxx206detail18expected_move_baseIjN8WasmEdge7ErrCodeELb0EECI2NS0_21expected_storage_baseIjS3_Lb1ELb1EEEIJjETnPNSt9enable_ifIX18is_constructible_vIjDpT_EEvE4typeELPv0ELb1EEESt10in_place_tDpOS7_(ptr noundef nonnull align 4 dereferenceable(8) %5, ptr noundef nonnull align 4 dereferenceable(4) %6) #18
  ret void
}

; Function Attrs: mustprogress nounwind uwtable
define linkonce_odr hidden void @_ZN5cxx206detail26expected_default_ctor_baseIjN8WasmEdge7ErrCodeELb1EEC2ESt10in_place_t(ptr noundef nonnull align 1 dereferenceable(1) %0) unnamed_addr #2 comdat align 2 {
  %2 = alloca ptr, align 8
  store ptr %0, ptr %2, align 8
  ret void
}

; Function Attrs: mustprogress nounwind uwtable
define linkonce_odr hidden void @_ZN5cxx206detail25expected_move_assign_baseIjN8WasmEdge7ErrCodeELb0EECI2NS0_21expected_storage_baseIjS3_Lb1ELb1EEEIJjETnPNSt9enable_ifIX18is_constructible_vIjDpT_EEvE4typeELPv0ELb1EEESt10in_place_tDpOS7_(ptr noundef nonnull align 4 dereferenceable(8) %0, ptr noundef nonnull align 4 dereferenceable(4) %1) unnamed_addr #2 comdat align 2 {
  %3 = alloca ptr, align 8
  %4 = alloca ptr, align 8
  store ptr %0, ptr %3, align 8
  store ptr %1, ptr %4, align 8
  %5 = load ptr, ptr %3, align 8
  %6 = load ptr, ptr %4, align 8
  call void @_ZN5cxx206detail25expected_copy_assign_baseIjN8WasmEdge7ErrCodeELb0EECI2NS0_21expected_storage_baseIjS3_Lb1ELb1EEEIJjETnPNSt9enable_ifIX18is_constructible_vIjDpT_EEvE4typeELPv0ELb1EEESt10in_place_tDpOS7_(ptr noundef nonnull align 4 dereferenceable(8) %5, ptr noundef nonnull align 4 dereferenceable(4) %6) #18
  ret void
}

; Function Attrs: mustprogress nounwind uwtable
define linkonce_odr hidden void @_ZN5cxx208expectedIjN8WasmEdge7ErrCodeEEC2IJjETnPNSt9enable_ifIX18is_constructible_vIjDpT_EEvE4typeELPv0ELb1EEESt10in_place_tDpOS6_(ptr noundef nonnull align 4 dereferenceable(8) %0, ptr noundef nonnull align 4 dereferenceable(4) %1) unnamed_addr #2 comdat align 2 {
  %3 = alloca ptr, align 8
  %4 = alloca ptr, align 8
  store ptr %0, ptr %3, align 8
  store ptr %1, ptr %4, align 8
  %5 = load ptr, ptr %3, align 8
  %6 = load ptr, ptr %4, align 8
  call void @_ZN5cxx206detail25expected_move_assign_baseIjN8WasmEdge7ErrCodeELb0EECI2NS0_21expected_storage_baseIjS3_Lb1ELb1EEEIJjETnPNSt9enable_ifIX18is_constructible_vIjDpT_EEvE4typeELPv0ELb1EEESt10in_place_tDpOS7_(ptr noundef nonnull align 4 dereferenceable(8) %5, ptr noundef nonnull align 4 dereferenceable(4) %6) #18
  call void @_ZN5cxx206detail26expected_default_ctor_baseIjN8WasmEdge7ErrCodeELb1EEC2ESt10in_place_t(ptr noundef nonnull align 1 dereferenceable(1) %5)
  ret void
}

; Function Attrs: mustprogress nounwind uwtable
define linkonce_odr hidden noundef i32 @_ZNK8WasmEdge3AST5Limit6getMinEv(ptr noundef nonnull align 4 dereferenceable(12) %0) #2 comdat align 2 {
  %2 = alloca ptr, align 8
  store ptr %0, ptr %2, align 8
  %3 = load ptr, ptr %2, align 8
  %4 = getelementptr inbounds %"class.WasmEdge::AST::Limit", ptr %3, i32 0, i32 1
  %5 = load i32, ptr %4, align 4
  ret i32 %5
}

; Function Attrs: mustprogress nounwind uwtable
define linkonce_odr hidden noundef nonnull align 4 dereferenceable(12) ptr @_ZNK8WasmEdge3AST9TableType8getLimitEv(ptr noundef nonnull align 4 dereferenceable(20) %0) #2 comdat align 2 {
  %2 = alloca ptr, align 8
  store ptr %0, ptr %2, align 8
  %3 = load ptr, ptr %2, align 8
  %4 = getelementptr inbounds %"class.WasmEdge::AST::TableType", ptr %3, i32 0, i32 1
  ret ptr %4
}

; Function Attrs: mustprogress nounwind uwtable
define linkonce_odr hidden void @_ZN5cxx208expectedIjN8WasmEdge7ErrCodeEEC2IjTnPNSt9enable_ifIXaasr6traitsE17enable_in_place_vIT_E16is_convertible_vIS6_jEEvE4typeELPv0ELb1EEEOS6_(ptr noundef nonnull align 4 dereferenceable(8) %0, ptr noundef nonnull align 4 dereferenceable(4) %1) unnamed_addr #2 comdat align 2 {
  %3 = alloca ptr, align 8
  %4 = alloca ptr, align 8
  store ptr %0, ptr %3, align 8
  store ptr %1, ptr %4, align 8
  %5 = load ptr, ptr %3, align 8
  %6 = load ptr, ptr %4, align 8
  call void @_ZN5cxx208expectedIjN8WasmEdge7ErrCodeEEC2IJjETnPNSt9enable_ifIX18is_constructible_vIjDpT_EEvE4typeELPv0ELb1EEESt10in_place_tDpOS6_(ptr noundef nonnull align 4 dereferenceable(8) %5, ptr noundef nonnull align 4 dereferenceable(4) %6) #18
  ret void
}

; Function Attrs: mustprogress nounwind uwtable
define linkonce_odr hidden noundef i32 @_ZNK8WasmEdge7Runtime8Instance13TableInstance7getSizeEv(ptr noundef nonnull align 16 dereferenceable(64) %0) #2 comdat align 2 {
  %2 = alloca ptr, align 8
  store ptr %0, ptr %2, align 8
  %3 = load ptr, ptr %2, align 8
  %4 = getelementptr inbounds %"class.WasmEdge::Runtime::Instance::TableInstance", ptr %3, i32 0, i32 0
  %5 = call noundef nonnull align 4 dereferenceable(12) ptr @_ZNK8WasmEdge3AST9TableType8getLimitEv(ptr noundef nonnull align 4 dereferenceable(20) %4) #18
  %6 = call noundef i32 @_ZNK8WasmEdge3AST5Limit6getMinEv(ptr noundef nonnull align 4 dereferenceable(12) %5) #18
  ret i32 %6
}

; Function Attrs: mustprogress nounwind uwtable
define void @_ZN8WasmEdge8Executor8Executor9tableSizeERNS_7Runtime12StackManagerEj(ptr dead_on_unwind noalias writable sret(%"class.cxx20::expected.303") align 4 %0, ptr noundef nonnull align 8 dereferenceable(408) %1, ptr noundef nonnull align 8 dereferenceable(48) %2, i32 noundef %3) #2 align 2 personality ptr @__gxx_personality_v0 {
  %5 = alloca ptr, align 8
  %6 = alloca ptr, align 8
  %7 = alloca ptr, align 8
  %8 = alloca i32, align 4
  %9 = alloca ptr, align 8
  %10 = alloca i32, align 4
  store ptr %0, ptr %5, align 8
  store ptr %1, ptr %6, align 8
  store ptr %2, ptr %7, align 8
  store i32 %3, ptr %8, align 4
  %11 = load ptr, ptr %6, align 8
  %12 = load ptr, ptr %7, align 8
  %13 = load i32, ptr %8, align 4
  %14 = invoke noundef ptr @_ZNK8WasmEdge8Executor8Executor15getTabInstByIdxERNS_7Runtime12StackManagerEj(ptr noundef nonnull align 8 dereferenceable(408) %11, ptr noundef nonnull align 8 dereferenceable(48) %12, i32 noundef %13)
          to label %15 unwind label %24

15:                                               ; preds = %4
  store ptr %14, ptr %9, align 8
  %16 = load ptr, ptr %9, align 8
  %17 = icmp ne ptr %16, null
  br i1 %17, label %18, label %19

18:                                               ; preds = %15
  br label %21

19:                                               ; preds = %15
  unreachable

20:                                               ; No predecessors!
  br label %21

21:                                               ; preds = %20, %18
  %22 = load ptr, ptr %9, align 8
  %23 = call noundef i32 @_ZNK8WasmEdge7Runtime8Instance13TableInstance7getSizeEv(ptr noundef nonnull align 16 dereferenceable(64) %22) #18
  store i32 %23, ptr %10, align 4
  call void @_ZN5cxx208expectedIjN8WasmEdge7ErrCodeEEC2IjTnPNSt9enable_ifIXaasr6traitsE17enable_in_place_vIT_E16is_convertible_vIS6_jEEvE4typeELPv0ELb1EEEOS6_(ptr noundef nonnull align 4 dereferenceable(8) %0, ptr noundef nonnull align 4 dereferenceable(4) %10) #18
  ret void

24:                                               ; preds = %4
  %25 = landingpad { ptr, i32 }
          catch ptr null
  %26 = extractvalue { ptr, i32 } %25, 0
  call void @__clang_call_terminate(ptr %26) #20
  unreachable
}